; Function Attrs: mustprogress nounwind uwtable
define hidden noundef zeroext i1 @_ZNK5osgeo4proj3crs8BoundCRS19isTOWGS84CompatibleEv(ptr nocapture noundef nonnull readonly align 8 dereferenceable(80) %0) local_unnamed_addr #3 align 2 {
  %2 = getelementptr inbounds i8, ptr %0, i64 72
  %3 = load ptr, ptr %2, align 8
  %4 = getelementptr inbounds i8, ptr %3, i64 16
  %5 = load ptr, ptr %4, align 8
  %6 = icmp eq ptr %5, null
  br i1 %6, label %.critedge, label %7

7:                                                ; preds = %1
  %8 = tail call ptr @__dynamic_cast(ptr nonnull %5, ptr nonnull @_ZTIN5osgeo4proj3crs3CRSE, ptr nonnull @_ZTIN5osgeo4proj3crs11GeodeticCRSE, i64 -1) #37
  %9 = icmp eq ptr %8, null
  br i1 %9, label %.critedge, label %10

10:                                               ; preds = %7
  %11 = tail call noundef nonnull align 8 dereferenceable(32) ptr @_ZNK5osgeo4proj6common16IdentifiedObject7nameStrB5cxx11Ev(ptr noundef nonnull align 8 dereferenceable(40) %5) #40
  %12 = tail call noundef zeroext i1 @_ZN5osgeo4proj8internal8ci_equalERKNSt7__cxx1112basic_stringIcSt11char_traitsIcESaIcEEEPKc(ptr noundef nonnull align 8 dereferenceable(32) %11, ptr noundef nonnull @.str.21) #37
  br label %.critedge

.critedge:                                        ; preds = %1, %10, %7
  %13 = phi i1 [ false, %7 ], [ %12, %10 ], [ false, %1 ]
  ret i1 %13
}